; Function Attrs: nounwind uwtable
define i32 @cvLsATimes(ptr noundef %0, ptr noundef %1, ptr noundef %2) #0 {
  %4 = icmp eq ptr %0, null
  br i1 %4, label %5, label %6

5:                                                ; preds = %3
  tail call void (ptr, i32, i32, ptr, ptr, ptr, ...) @cvProcessError(ptr noundef null, i32 noundef -1, i32 noundef 1930, ptr noundef nonnull @__func__.cvLsATimes, ptr noundef nonnull @.str, ptr noundef nonnull @.str.1) #13
  br label %cvLs_AccessLMem.exit.thread

6:                                                ; preds = %3
  %7 = getelementptr inbounds nuw i8, ptr %0, i64 1040
  %8 = load ptr, ptr %7, align 8, !tbaa !69
  %9 = icmp eq ptr %8, null
  br i1 %9, label %10, label %cvLs_AccessLMem.exit

10:                                               ; preds = %6
  tail call void (ptr, i32, i32, ptr, ptr, ptr, ...) @cvProcessError(ptr noundef nonnull %0, i32 noundef -2, i32 noundef 1937, ptr noundef nonnull @__func__.cvLsATimes, ptr noundef nonnull @.str, ptr noundef nonnull @.str.30) #13
  br label %cvLs_AccessLMem.exit.thread

cvLs_AccessLMem.exit:                             ; preds = %6
  %11 = getelementptr inbounds nuw i8, ptr %8, i64 264
  %12 = load ptr, ptr %11, align 8, !tbaa !46
  %13 = getelementptr inbounds nuw i8, ptr %0, i64 360
  %14 = load double, ptr %13, align 8, !tbaa !82
  %15 = getelementptr inbounds nuw i8, ptr %8, i64 112
  %16 = load ptr, ptr %15, align 8, !tbaa !76
  %17 = getelementptr inbounds nuw i8, ptr %8, i64 120
  %18 = load ptr, ptr %17, align 8, !tbaa !77
  %19 = getelementptr inbounds nuw i8, ptr %8, i64 280
  %20 = load ptr, ptr %19, align 8, !tbaa !49
  %21 = getelementptr inbounds nuw i8, ptr %8, i64 96
  %22 = load ptr, ptr %21, align 8, !tbaa !63
  %23 = tail call i32 %12(ptr noundef %1, ptr noundef %2, double noundef %14, ptr noundef %16, ptr noundef %18, ptr noundef %20, ptr noundef %22) #13
  %24 = getelementptr inbounds nuw i8, ptr %8, i64 200
  %25 = load i64, ptr %24, align 8, !tbaa !104
  %26 = add nsw i64 %25, 1
  store i64 %26, ptr %24, align 8, !tbaa !104
  %.not12 = icmp eq i32 %23, 0
  br i1 %.not12, label %27, label %cvLs_AccessLMem.exit.thread

27:                                               ; preds = %cvLs_AccessLMem.exit
  %28 = getelementptr inbounds nuw i8, ptr %0, i64 648
  %29 = load double, ptr %28, align 8, !tbaa !78
  %30 = fneg double %29
  tail call void @N_VLinearSum(double noundef 1.000000e+00, ptr noundef %1, double noundef %30, ptr noundef %2, ptr noundef %2) #13
  br label %cvLs_AccessLMem.exit.thread

cvLs_AccessLMem.exit.thread:                      ; preds = %10, %5, %cvLs_AccessLMem.exit, %27
  %.0 = phi i32 [ 0, %27 ], [ %23, %cvLs_AccessLMem.exit ], [ -2, %10 ], [ -1, %5 ]
  ret i32 %.0
}